target datalayout = "e-m:e-p270:32:32-p271:32:32-p272:64:64-i64:64-i128:128-f80:128-n8:16:32:64-S128"
target triple = "x86_64-unknown-linux-gnu"

; Function Attrs: mustprogress uwtable
define void @_ZN7rocksdb16ImmutableOptionsC2ERKNS_9DBOptionsERKNS_19ColumnFamilyOptionsE(ptr noundef nonnull align 8 dereferenceable(857) %this, ptr noundef nonnull align 8 dereferenceable(688) %db_options, ptr noundef nonnull align 8 dereferenceable(820) %cf_options) unnamed_addr #0 align 2 personality ptr @__gxx_personality_v0 {
entry:
  %this.addr = alloca ptr, align 8
  %db_options.addr = alloca ptr, align 8
  %cf_options.addr = alloca ptr, align 8
  %exn.slot = alloca ptr, align 8
  %ehselector.slot = alloca i32, align 4
  store ptr %this, ptr %this.addr, align 8
  store ptr %db_options, ptr %db_options.addr, align 8
  store ptr %cf_options, ptr %cf_options.addr, align 8
  %this1 = load ptr, ptr %this.addr, align 8
  %0 = load ptr, ptr %db_options.addr, align 8
  call void @_ZN7rocksdb18ImmutableDBOptionsC2ERKNS_9DBOptionsE(ptr noundef nonnull align 8 dereferenceable(569) %this1, ptr noundef nonnull align 8 dereferenceable(688) %0)
  %1 = getelementptr inbounds i8, ptr %this1, i64 576
  %2 = load ptr, ptr %cf_options.addr, align 8
  invoke void @_ZN7rocksdb18ImmutableCFOptionsC2ERKNS_19ColumnFamilyOptionsE(ptr noundef nonnull align 8 dereferenceable(281) %1, ptr noundef nonnull align 8 dereferenceable(820) %2)
          to label %invoke.cont unwind label %lpad

invoke.cont:                                      ; preds = %entry
  ret void

lpad:                                             ; preds = %entry
  %3 = landingpad { ptr, i32 }
          cleanup
  %4 = extractvalue { ptr, i32 } %3, 0
  store ptr %4, ptr %exn.slot, align 8
  %5 = extractvalue { ptr, i32 } %3, 1
  store i32 %5, ptr %ehselector.slot, align 4
  call void @_ZN7rocksdb18ImmutableDBOptionsD2Ev(ptr noundef nonnull align 8 dereferenceable(569) %this1) #4
  br label %eh.resume

eh.resume:                                        ; preds = %lpad
  %exn = load ptr, ptr %exn.slot, align 8
  %sel = load i32, ptr %ehselector.slot, align 4
  %lpad.val = insertvalue { ptr, i32 } poison, ptr %exn, 0
  %lpad.val2 = insertvalue { ptr, i32 } %lpad.val, i32 %sel, 1
  resume { ptr, i32 } %lpad.val2
}

; Function Attrs: mustprogress uwtable
define void @_ZN7rocksdb16ImmutableOptionsC2ERKNS_7OptionsE(ptr noundef nonnull align 8 dereferenceable(857) %this, ptr noundef nonnull align 8 dereferenceable(1508) %options) unnamed_addr #0 align 2 {
entry:
  %this.addr = alloca ptr, align 8
  %options.addr = alloca ptr, align 8
  store ptr %this, ptr %this.addr, align 8
  store ptr %options, ptr %options.addr, align 8
  %this1 = load ptr, ptr %this.addr, align 8
  %0 = load ptr, ptr %options.addr, align 8
  %1 = load ptr, ptr %options.addr, align 8
  %add.ptr = getelementptr inbounds i8, ptr %1, i64 688
  call void @_ZN7rocksdb16ImmutableOptionsC2ERKNS_9DBOptionsERKNS_19ColumnFamilyOptionsE(ptr noundef nonnull align 8 dereferenceable(857) %this1, ptr noundef nonnull align 8 dereferenceable(688) %0, ptr noundef nonnull align 8 dereferenceable(820) %add.ptr)
  ret void
}