; Function Attrs: mustprogress uwtable
define void @_ZN7rocksdb16ImmutableOptionsC2ERKNS_7OptionsE(ptr noundef nonnull align 8 dereferenceable(857) %this, ptr noundef nonnull align 8 dereferenceable(1508) %options) unnamed_addr #2 align 2 personality ptr @__gxx_personality_v0 {
entry:
  %add.ptr = getelementptr inbounds i8, ptr %options, i64 688
  tail call void @_ZN7rocksdb18ImmutableDBOptionsC2ERKNS_9DBOptionsE(ptr noundef nonnull align 8 dereferenceable(569) %this, ptr noundef nonnull align 8 dereferenceable(688) %options)
  %0 = getelementptr inbounds i8, ptr %this, i64 576
  invoke void @_ZN7rocksdb18ImmutableCFOptionsC2ERKNS_19ColumnFamilyOptionsE(ptr noundef nonnull align 8 dereferenceable(281) %0, ptr noundef nonnull align 8 dereferenceable(820) %add.ptr)
          to label %_ZN7rocksdb16ImmutableOptionsC2ERKNS_9DBOptionsERKNS_19ColumnFamilyOptionsE.exit unwind label %lpad.i

lpad.i:                                           ; preds = %entry
  %1 = landingpad { ptr, i32 }
          cleanup
  tail call void @_ZN7rocksdb18ImmutableDBOptionsD2Ev(ptr noundef nonnull align 8 dereferenceable(569) %this) #27
  resume { ptr, i32 } %1

_ZN7rocksdb16ImmutableOptionsC2ERKNS_9DBOptionsERKNS_19ColumnFamilyOptionsE.exit: ; preds = %entry
  ret void
}